target datalayout = "e-m:e-p270:32:32-p271:32:32-p272:64:64-i64:64-i128:128-f80:128-n8:16:32:64-S128"
target triple = "x86_64-pc-linux-gnu"

%struct.lemon = type { ptr, ptr, ptr, i32, i32, i32, i32, i32, i32, i32, i32, i32, i32, i32, i32, ptr, i32, ptr, ptr, ptr, ptr, ptr, ptr, ptr, ptr, ptr, ptr, ptr, ptr, ptr, ptr, ptr, ptr, ptr, ptr, ptr, ptr, i32, i32, i32, i32, i32, i32, i32, i32, ptr }

@stderr = external global ptr, align 8
@.str.73 = private unnamed_addr constant [3 x i8] c"rb\00", align 1
@tplt_open.templatename = internal global [9 x i8] c"lempar.c\00", align 1
@user_templatename = internal global ptr null, align 8
@.str.129 = private unnamed_addr constant [50 x i8] c"Can't find the parser driver template file \22%s\22.\0A\00", align 1
@.str.130 = private unnamed_addr constant [36 x i8] c"Can't open the template file \22%s\22.\0A\00", align 1
@.str.131 = private unnamed_addr constant [8 x i8] c"%.*s.lt\00", align 1
@.str.132 = private unnamed_addr constant [6 x i8] c"%s.lt\00", align 1

; Function Attrs: null_pointer_is_valid sspstrong uwtable
define hidden ptr @tplt_open(ptr noundef %0) #0 {
  %2 = alloca ptr, align 8
  %3 = alloca ptr, align 8
  %4 = alloca [1000 x i8], align 16
  %5 = alloca ptr, align 8
  %6 = alloca ptr, align 8
  %7 = alloca ptr, align 8
  %8 = alloca ptr, align 8
  %9 = alloca i32, align 4
  store ptr %0, ptr %3, align 8
  call void @llvm.lifetime.start.p0(i64 1000, ptr %4) #18
  call void @llvm.lifetime.start.p0(i64 8, ptr %5) #18
  call void @llvm.lifetime.start.p0(i64 8, ptr %6) #18
  call void @llvm.lifetime.start.p0(i64 8, ptr %7) #18
  store ptr null, ptr %7, align 8
  call void @llvm.lifetime.start.p0(i64 8, ptr %8) #18
  %10 = load ptr, ptr @user_templatename, align 8
  %11 = icmp ne ptr %10, null
  br i1 %11, label %12, label %39

12:                                               ; preds = %1
  %13 = load ptr, ptr @user_templatename, align 8
  %14 = call i32 @access(ptr noundef %13, i32 noundef 4) #18
  %15 = icmp eq i32 %14, -1
  br i1 %15, label %16, label %24

16:                                               ; preds = %12
  %17 = load ptr, ptr @stderr, align 8
  %18 = load ptr, ptr @user_templatename, align 8
  %19 = call i32 (ptr, i32, ptr, ...) @__fprintf_chk(ptr noundef %17, i32 noundef 2, ptr noundef @.str.129, ptr noundef %18)
  %20 = load ptr, ptr %3, align 8
  %21 = getelementptr inbounds nuw %struct.lemon, ptr %20, i32 0, i32 16
  %22 = load i32, ptr %21, align 8
  %23 = add i32 %22, 1
  store i32 %23, ptr %21, align 8
  store ptr null, ptr %2, align 8
  store i32 1, ptr %9, align 4
  br label %108

24:                                               ; preds = %12
  %25 = load ptr, ptr @user_templatename, align 8
  %26 = call noalias ptr @fopen(ptr noundef %25, ptr noundef @.str.73)
  store ptr %26, ptr %5, align 8
  %27 = load ptr, ptr %5, align 8
  %28 = icmp eq ptr %27, null
  br i1 %28, label %29, label %37

29:                                               ; preds = %24
  %30 = load ptr, ptr @stderr, align 8
  %31 = load ptr, ptr @user_templatename, align 8
  %32 = call i32 (ptr, i32, ptr, ...) @__fprintf_chk(ptr noundef %30, i32 noundef 2, ptr noundef @.str.130, ptr noundef %31)
  %33 = load ptr, ptr %3, align 8
  %34 = getelementptr inbounds nuw %struct.lemon, ptr %33, i32 0, i32 16
  %35 = load i32, ptr %34, align 8
  %36 = add i32 %35, 1
  store i32 %36, ptr %34, align 8
  store ptr null, ptr %2, align 8
  store i32 1, ptr %9, align 4
  br label %108

37:                                               ; preds = %24
  %38 = load ptr, ptr %5, align 8
  store ptr %38, ptr %2, align 8
  store i32 1, ptr %9, align 4
  br label %108

39:                                               ; preds = %1
  %40 = load ptr, ptr %3, align 8
  %41 = getelementptr inbounds nuw %struct.lemon, ptr %40, i32 0, i32 34
  %42 = load ptr, ptr %41, align 8
  %43 = call ptr @strrchr(ptr noundef %42, i32 noundef 46) #22
  store ptr %43, ptr %8, align 8
  %44 = load ptr, ptr %8, align 8
  %45 = icmp ne ptr %44, null
  br i1 %45, label %46, label %60

46:                                               ; preds = %39
  %47 = getelementptr inbounds [1000 x i8], ptr %4, i64 0, i64 0
  %48 = load ptr, ptr %8, align 8
  %49 = load ptr, ptr %3, align 8
  %50 = getelementptr inbounds nuw %struct.lemon, ptr %49, i32 0, i32 34
  %51 = load ptr, ptr %50, align 8
  %52 = ptrtoint ptr %48 to i64
  %53 = ptrtoint ptr %51 to i64
  %54 = sub i64 %52, %53
  %55 = trunc i64 %54 to i32
  %56 = load ptr, ptr %3, align 8
  %57 = getelementptr inbounds nuw %struct.lemon, ptr %56, i32 0, i32 34
  %58 = load ptr, ptr %57, align 8
  %59 = call i32 (ptr, ptr, ...) @lemon_sprintf(ptr noundef %47, ptr noundef @.str.131, i32 noundef %55, ptr noundef %58)
  br label %66

60:                                               ; preds = %39
  %61 = getelementptr inbounds [1000 x i8], ptr %4, i64 0, i64 0
  %62 = load ptr, ptr %3, align 8
  %63 = getelementptr inbounds nuw %struct.lemon, ptr %62, i32 0, i32 34
  %64 = load ptr, ptr %63, align 8
  %65 = call i32 (ptr, ptr, ...) @lemon_sprintf(ptr noundef %61, ptr noundef @.str.132, ptr noundef %64)
  br label %66

66:                                               ; preds = %60, %46
  %67 = getelementptr inbounds [1000 x i8], ptr %4, i64 0, i64 0
  %68 = call i32 @access(ptr noundef %67, i32 noundef 4) #18
  %69 = icmp eq i32 %68, 0
  br i1 %69, label %70, label %72

70:                                               ; preds = %66
  %71 = getelementptr inbounds [1000 x i8], ptr %4, i64 0, i64 0
  store ptr %71, ptr %6, align 8
  br label %82

72:                                               ; preds = %66
  %73 = call i32 @access(ptr noundef @tplt_open.templatename, i32 noundef 4) #18
  %74 = icmp eq i32 %73, 0
  br i1 %74, label %75, label %76

75:                                               ; preds = %72
  store ptr @tplt_open.templatename, ptr %6, align 8
  br label %81

76:                                               ; preds = %72
  %77 = load ptr, ptr %3, align 8
  %78 = getelementptr inbounds nuw %struct.lemon, ptr %77, i32 0, i32 45
  %79 = load ptr, ptr %78, align 8
  %80 = call ptr @pathsearch(ptr noundef %79, ptr noundef @tplt_open.templatename, i32 noundef 0)
  store ptr %80, ptr %6, align 8
  store ptr %80, ptr %7, align 8
  br label %81

81:                                               ; preds = %76, %75
  br label %82

82:                                               ; preds = %81, %70
  %83 = load ptr, ptr %6, align 8
  %84 = icmp eq ptr %83, null
  br i1 %84, label %85, label %92

85:                                               ; preds = %82
  %86 = load ptr, ptr @stderr, align 8
  %87 = call i32 (ptr, i32, ptr, ...) @__fprintf_chk(ptr noundef %86, i32 noundef 2, ptr noundef @.str.129, ptr noundef @tplt_open.templatename)
  %88 = load ptr, ptr %3, align 8
  %89 = getelementptr inbounds nuw %struct.lemon, ptr %88, i32 0, i32 16
  %90 = load i32, ptr %89, align 8
  %91 = add i32 %90, 1
  store i32 %91, ptr %89, align 8
  store ptr null, ptr %2, align 8
  store i32 1, ptr %9, align 4
  br label %108

92:                                               ; preds = %82
  %93 = load ptr, ptr %6, align 8
  %94 = call noalias ptr @fopen(ptr noundef %93, ptr noundef @.str.73)
  store ptr %94, ptr %5, align 8
  %95 = load ptr, ptr %5, align 8
  %96 = icmp eq ptr %95, null
  br i1 %96, label %97, label %105

97:                                               ; preds = %92
  %98 = load ptr, ptr @stderr, align 8
  %99 = load ptr, ptr %6, align 8
  %100 = call i32 (ptr, i32, ptr, ...) @__fprintf_chk(ptr noundef %98, i32 noundef 2, ptr noundef @.str.130, ptr noundef %99)
  %101 = load ptr, ptr %3, align 8
  %102 = getelementptr inbounds nuw %struct.lemon, ptr %101, i32 0, i32 16
  %103 = load i32, ptr %102, align 8
  %104 = add i32 %103, 1
  store i32 %104, ptr %102, align 8
  br label %105

105:                                              ; preds = %97, %92
  %106 = load ptr, ptr %7, align 8
  call void @free(ptr noundef %106) #18
  %107 = load ptr, ptr %5, align 8
  store ptr %107, ptr %2, align 8
  store i32 1, ptr %9, align 4
  br label %108

108:                                              ; preds = %105, %85, %37, %29, %16
  call void @llvm.lifetime.end.p0(i64 8, ptr %8) #18
  call void @llvm.lifetime.end.p0(i64 8, ptr %7) #18
  call void @llvm.lifetime.end.p0(i64 8, ptr %6) #18
  call void @llvm.lifetime.end.p0(i64 8, ptr %5) #18
  call void @llvm.lifetime.end.p0(i64 1000, ptr %4) #18
  %109 = load ptr, ptr %2, align 8
  ret ptr %109
}