; Function Attrs: null_pointer_is_valid sspstrong uwtable
define hidden noalias noundef ptr @tplt_open(ptr noundef captures(none) %0) local_unnamed_addr #0 {
  %2 = alloca [1000 x i8], align 16
  call void @llvm.lifetime.start.p0(i64 1000, ptr nonnull %2) #42
  %3 = load ptr, ptr @user_templatename, align 8
  %.not = icmp eq ptr %3, null
  br i1 %.not, label %25, label %4

4:                                                ; preds = %1
  %5 = tail call i32 @access(ptr noundef nonnull %3, i32 noundef 4) #42
  %6 = icmp eq i32 %5, -1
  br i1 %6, label %7, label %14

7:                                                ; preds = %4
  %8 = load ptr, ptr @stderr, align 8
  %9 = load ptr, ptr @user_templatename, align 8
  %10 = tail call i32 (ptr, i32, ptr, ...) @__fprintf_chk(ptr noundef %8, i32 noundef 2, ptr noundef nonnull @.str.129, ptr noundef %9)
  %11 = getelementptr inbounds nuw i8, ptr %0, i64 80
  %12 = load i32, ptr %11, align 8
  %13 = add i32 %12, 1
  store i32 %13, ptr %11, align 8
  br label %61

14:                                               ; preds = %4
  %15 = load ptr, ptr @user_templatename, align 8
  %16 = tail call noalias ptr @fopen(ptr noundef %15, ptr noundef nonnull @.str.73)
  %17 = icmp eq ptr %16, null
  br i1 %17, label %18, label %61

18:                                               ; preds = %14
  %19 = load ptr, ptr @stderr, align 8
  %20 = load ptr, ptr @user_templatename, align 8
  %21 = tail call i32 (ptr, i32, ptr, ...) @__fprintf_chk(ptr noundef %19, i32 noundef 2, ptr noundef nonnull @.str.130, ptr noundef %20)
  %22 = getelementptr inbounds nuw i8, ptr %0, i64 80
  %23 = load i32, ptr %22, align 8
  %24 = add i32 %23, 1
  store i32 %24, ptr %22, align 8
  br label %61

25:                                               ; preds = %1
  %26 = getelementptr inbounds nuw i8, ptr %0, i64 224
  %27 = load ptr, ptr %26, align 8
  %28 = tail call ptr @strrchr(ptr noundef %27, i32 noundef 46) #45
  %.not25 = icmp eq ptr %28, null
  br i1 %.not25, label %34, label %29

29:                                               ; preds = %25
  %30 = ptrtoint ptr %28 to i64
  %31 = ptrtoint ptr %27 to i64
  %32 = sub i64 %30, %31
  %33 = trunc i64 %32 to i32
  call void (ptr, ptr, ...) @lemon_sprintf(ptr noundef nonnull %2, ptr noundef nonnull @.str.131, i32 noundef %33, ptr noundef %27)
  br label %35

34:                                               ; preds = %25
  call void (ptr, ptr, ...) @lemon_sprintf(ptr noundef nonnull %2, ptr noundef nonnull @.str.132, ptr noundef %27)
  br label %35

35:                                               ; preds = %34, %29
  %36 = call i32 @access(ptr noundef nonnull %2, i32 noundef 4) #42
  %37 = icmp eq i32 %36, 0
  br i1 %37, label %.thread, label %38

38:                                               ; preds = %35
  %39 = call i32 @access(ptr noundef nonnull @tplt_open.templatename, i32 noundef 4) #42
  %40 = icmp eq i32 %39, 0
  br i1 %40, label %.thread, label %41

41:                                               ; preds = %38
  %42 = getelementptr inbounds nuw i8, ptr %0, i64 280
  %43 = load ptr, ptr %42, align 8
  %44 = call ptr @pathsearch(ptr noundef %43, ptr noundef nonnull @tplt_open.templatename, i32 noundef 0)
  %45 = icmp eq ptr %44, null
  br i1 %45, label %46, label %.thread

46:                                               ; preds = %41
  %47 = load ptr, ptr @stderr, align 8
  %48 = call i32 (ptr, i32, ptr, ...) @__fprintf_chk(ptr noundef %47, i32 noundef 2, ptr noundef nonnull @.str.129, ptr noundef nonnull @tplt_open.templatename)
  %49 = getelementptr inbounds nuw i8, ptr %0, i64 80
  %50 = load i32, ptr %49, align 8
  %51 = add i32 %50, 1
  store i32 %51, ptr %49, align 8
  br label %61

.thread:                                          ; preds = %38, %35, %41
  %.02029 = phi ptr [ %44, %41 ], [ null, %35 ], [ null, %38 ]
  %.02128 = phi ptr [ %44, %41 ], [ %2, %35 ], [ @tplt_open.templatename, %38 ]
  %52 = call noalias ptr @fopen(ptr noundef nonnull %.02128, ptr noundef nonnull @.str.73)
  %53 = icmp eq ptr %52, null
  br i1 %53, label %54, label %60

54:                                               ; preds = %.thread
  %55 = load ptr, ptr @stderr, align 8
  %56 = call i32 (ptr, i32, ptr, ...) @__fprintf_chk(ptr noundef %55, i32 noundef 2, ptr noundef nonnull @.str.130, ptr noundef nonnull %.02128)
  %57 = getelementptr inbounds nuw i8, ptr %0, i64 80
  %58 = load i32, ptr %57, align 8
  %59 = add i32 %58, 1
  store i32 %59, ptr %57, align 8
  br label %60

60:                                               ; preds = %54, %.thread
  call void @free(ptr noundef %.02029) #42
  br label %61

61:                                               ; preds = %14, %60, %46, %18, %7
  %.0 = phi ptr [ null, %7 ], [ null, %18 ], [ null, %46 ], [ %52, %60 ], [ %16, %14 ]
  call void @llvm.lifetime.end.p0(i64 1000, ptr nonnull %2) #42
  ret ptr %.0
}